target datalayout = "e-m:e-p270:32:32-p271:32:32-p272:64:64-i64:64-i128:128-f80:128-n8:16:32:64-S128"
target triple = "x86_64-pc-linux-gnu"

%struct.X509_algor_st = type { ptr, ptr }
%struct.asn1_string_st = type { i32, i32, ptr, i64 }
%struct.X509_acert_st = type { ptr, %struct.X509_algor_st, %struct.asn1_string_st }
%struct.X509_acert_info_st = type { %struct.asn1_string_st, %struct.X509_holder_st, %struct.X509_acert_issuer_st, %struct.X509_algor_st, %struct.asn1_string_st, %struct.X509_val_st, ptr, ptr, ptr }
%struct.X509_holder_st = type { ptr, ptr, ptr }
%struct.X509_acert_issuer_st = type { i32, %union.anon }
%union.anon = type { ptr }
%struct.X509_val_st = type { ptr, ptr }

; Function Attrs: nounwind uwtable
define void @X509_ACERT_set0_holder_entityName(ptr noundef %0, ptr noundef %1) #0 {
  %3 = alloca ptr, align 8
  %4 = alloca ptr, align 8
  store ptr %0, ptr %3, align 8, !tbaa !29
  store ptr %1, ptr %4, align 8, !tbaa !22
  %5 = load ptr, ptr %3, align 8, !tbaa !29
  %6 = getelementptr inbounds nuw %struct.X509_acert_st, ptr %5, i32 0, i32 0
  %7 = load ptr, ptr %6, align 8, !tbaa !32
  %8 = getelementptr inbounds nuw %struct.X509_acert_info_st, ptr %7, i32 0, i32 1
  %9 = getelementptr inbounds nuw %struct.X509_holder_st, ptr %8, i32 0, i32 1
  %10 = load ptr, ptr %9, align 8, !tbaa !38
  call void @GENERAL_NAMES_free(ptr noundef %10)
  %11 = load ptr, ptr %4, align 8, !tbaa !22
  %12 = load ptr, ptr %3, align 8, !tbaa !29
  %13 = getelementptr inbounds nuw %struct.X509_acert_st, ptr %12, i32 0, i32 0
  %14 = load ptr, ptr %13, align 8, !tbaa !32
  %15 = getelementptr inbounds nuw %struct.X509_acert_info_st, ptr %14, i32 0, i32 1
  %16 = getelementptr inbounds nuw %struct.X509_holder_st, ptr %15, i32 0, i32 1
  store ptr %11, ptr %16, align 8, !tbaa !38
  ret void
}